(dp0
S'testStepSizeH'
p1
I31
sS'vMagScale'
p2
F4.697776385844034
sS'hMax'
p3
I32767
sS'knownDistanceV'
p4
I10
sS'pointsV'
p5
I824
sS'pointsH'
p6
I837
sS'hMin'
p7
I-32767
sS'hMagScale'
p8
F4.624812117007747
sS'knownDistanceH'
p9
I10
sS'vMax'
p10
I32767
sS'aspectRatio'
p11
F1.0157766990291262
sS'testStepSizeV'
p12
I31
sS'vMin'
p13
I-32767
sS'testmag'
p14
I12000
s.